; Function Attrs: mustprogress uwtable
define internal void @"_ZNSt17_Function_handlerIFvP10gmx_mdoutfldbbEZN3gmx19StatePropagatorData7Element32registerTrajectoryWriterCallbackENS3_15TrajectoryEventEE3$_0E9_M_invokeERKSt9_Any_dataOS1_OlOdObSF_"(ptr nocapture noundef nonnull readonly align 8 dereferenceable(16) %0, ptr nocapture noundef nonnull readonly align 8 dereferenceable(8) %1, ptr nocapture noundef nonnull readonly align 8 dereferenceable(8) %2, ptr nocapture noundef nonnull readonly align 8 dereferenceable(8) %3, ptr nocapture noundef nonnull readonly align 1 dereferenceable(1) %4, ptr nocapture nonnull readonly align 1 %5) #0 align 2 {
  %.val9 = load i8, ptr %4, align 1
  %7 = trunc i8 %.val9 to i1
  br i1 %7, label %8, label %"_ZSt10__invoke_rIvRZN3gmx19StatePropagatorData7Element32registerTrajectoryWriterCallbackENS0_15TrajectoryEventEE3$_0JP10gmx_mdoutfldbbEENSt9enable_ifIX16is_invocable_r_vIT_T0_DpT1_EES9_E4typeEOSA_DpOSB_.exit"

8:                                                ; preds = %6
  %.val8 = load double, ptr %3, align 8
  %.val7 = load i64, ptr %2, align 8
  %.val6 = load ptr, ptr %1, align 8
  %.val = load ptr, ptr %0, align 8
  tail call void @_ZN3gmx19StatePropagatorData7Element5writeEP10gmx_mdoutfld(ptr noundef nonnull align 8 dereferenceable(272) %.val, ptr noundef %.val6, i64 noundef %.val7, double noundef %.val8)
  br label %"_ZSt10__invoke_rIvRZN3gmx19StatePropagatorData7Element32registerTrajectoryWriterCallbackENS0_15TrajectoryEventEE3$_0JP10gmx_mdoutfldbbEENSt9enable_ifIX16is_invocable_r_vIT_T0_DpT1_EES9_E4typeEOSA_DpOSB_.exit"

"_ZSt10__invoke_rIvRZN3gmx19StatePropagatorData7Element32registerTrajectoryWriterCallbackENS0_15TrajectoryEventEE3$_0JP10gmx_mdoutfldbbEENSt9enable_ifIX16is_invocable_r_vIT_T0_DpT1_EES9_E4typeEOSA_DpOSB_.exit": ; preds = %6, %8
  ret void
}